; Function Attrs: mustprogress uwtable
define void @_ZN5arrow2io20BufferedOutputStream5AbortEv(ptr noalias sret(%"class.arrow::Status") align 8 %agg.result, ptr nocapture noundef nonnull readonly align 8 dereferenceable(16) %this) unnamed_addr #0 align 2 personality ptr @__gxx_personality_v0 {
entry:
  %impl_ = getelementptr inbounds i8, ptr %this, i64 8
  %0 = load ptr, ptr %impl_, align 8
  tail call void @llvm.experimental.noalias.scope.decl(metadata !57)
  %lock_.i = getelementptr inbounds i8, ptr %0, i64 64
  %call1.i.i.i.i = tail call noundef i32 @pthread_mutex_lock(ptr noundef nonnull %lock_.i) #21, !noalias !57
  %tobool.not.i.i.i = icmp eq i32 %call1.i.i.i.i, 0
  br i1 %tobool.not.i.i.i, label %_ZNSt10lock_guardISt5mutexEC2ERS0_.exit.i, label %if.then.i.i.i

if.then.i.i.i:                                    ; preds = %entry
  tail call void @_ZSt20__throw_system_errori(i32 noundef %call1.i.i.i.i) #24, !noalias !57
  unreachable

_ZNSt10lock_guardISt5mutexEC2ERS0_.exit.i:        ; preds = %entry
  %is_open_.i = getelementptr inbounds i8, ptr %0, i64 8
  %1 = load i8, ptr %is_open_.i, align 8, !noalias !57
  %2 = and i8 %1, 1
  %tobool.not.i = icmp eq i8 %2, 0
  br i1 %tobool.not.i, label %if.end.i, label %if.then.i

if.then.i:                                        ; preds = %_ZNSt10lock_guardISt5mutexEC2ERS0_.exit.i
  store i8 0, ptr %is_open_.i, align 8, !noalias !57
  %raw_.i = getelementptr inbounds i8, ptr %0, i64 104
  %3 = load ptr, ptr %raw_.i, align 8, !noalias !57
  %vtable.i = load ptr, ptr %3, align 8, !noalias !57
  %vbase.offset.ptr.i = getelementptr i8, ptr %vtable.i, i64 -24
  %vbase.offset.i = load i64, ptr %vbase.offset.ptr.i, align 8, !noalias !57
  %add.ptr.i = getelementptr inbounds i8, ptr %3, i64 %vbase.offset.i
  %vtable3.i = load ptr, ptr %add.ptr.i, align 8, !noalias !57
  %vfn.i = getelementptr inbounds i8, ptr %vtable3.i, i64 32
  %4 = load ptr, ptr %vfn.i, align 8, !noalias !57
  invoke void %4(ptr sret(%"class.arrow::Status") align 8 %agg.result, ptr noundef nonnull align 8 dereferenceable(28) %add.ptr.i)
          to label %_ZN5arrow2io20BufferedOutputStream4Impl5AbortEv.exit unwind label %lpad.i

lpad.i:                                           ; preds = %if.then.i
  %5 = landingpad { ptr, i32 }
          cleanup
  %call1.i.i.i1.i = tail call noundef i32 @pthread_mutex_unlock(ptr noundef nonnull %lock_.i) #21
  resume { ptr, i32 } %5

if.end.i:                                         ; preds = %_ZNSt10lock_guardISt5mutexEC2ERS0_.exit.i
  store ptr null, ptr %agg.result, align 8, !alias.scope !60
  br label %_ZN5arrow2io20BufferedOutputStream4Impl5AbortEv.exit

_ZN5arrow2io20BufferedOutputStream4Impl5AbortEv.exit: ; preds = %if.then.i, %if.end.i
  %call1.i.i.i2.i = tail call noundef i32 @pthread_mutex_unlock(ptr noundef nonnull %lock_.i) #21
  ret void
}